target datalayout = "e-m:e-p270:32:32-p271:32:32-p272:64:64-i64:64-i128:128-f80:128-n8:16:32:64-S128"
target triple = "x86_64-pc-linux-gnu"

%union.SourceSpan = type { i64 }
%struct.Vmem = type { ptr, i64, i64 }
%struct.Ast_ = type { %union.SourceSpan, i32, i8, %union.anon.65 }
%union.anon.65 = type { %struct.AstDocDirective_ }
%struct.AstDocDirective_ = type { i8, %union.anon.68 }
%union.anon.68 = type { %struct.anon.69 }
%struct.anon.69 = type { ptr, %union.SourceSpan, i8 }

@ast_arena = external global %struct.Vmem, align 8

; Function Attrs: nounwind uwtable
define internal ptr @astptr(i32 noundef %0) #0 {
  %2 = alloca i32, align 4
  store i32 %0, ptr %2, align 4
  %3 = load ptr, ptr @ast_arena, align 8
  %4 = load i32, ptr %2, align 4
  %5 = zext i32 %4 to i64
  %6 = getelementptr inbounds %struct.Ast_, ptr %3, i64 %5
  ret ptr %6
}

; Function Attrs: nounwind uwtable
define internal void @sema_trace_stmt_chain_liveness(i32 noundef %0) #0 {
  %2 = alloca ptr, align 8
  %3 = alloca ptr, align 8
  %4 = alloca i32, align 4
  %5 = alloca i32, align 4
  %6 = alloca ptr, align 8
  store i32 %0, ptr %4, align 4
  %7 = load i32, ptr %4, align 4
  store i32 %7, ptr %5, align 4
  br label %8

8:                                                ; preds = %27, %1
  %9 = load i32, ptr %5, align 4
  %10 = icmp ne i32 %9, 0
  br i1 %10, label %11, label %28

11:                                               ; preds = %8
  store ptr %5, ptr %2, align 8
  %12 = load ptr, ptr %2, align 8
  %13 = load i32, ptr %12, align 4
  %14 = call ptr @astptr(i32 noundef %13)
  store ptr %14, ptr %3, align 8
  %15 = load ptr, ptr %3, align 8
  %16 = getelementptr inbounds %struct.Ast_, ptr %15, i32 0, i32 1
  %17 = load i32, ptr %16, align 8
  %18 = load ptr, ptr %2, align 8
  store i32 %17, ptr %18, align 4
  %19 = load ptr, ptr %3, align 8
  store ptr %19, ptr %6, align 8
  %20 = load ptr, ptr %6, align 8
  call void @sema_trace_stmt_liveness(ptr noundef %20)
  %21 = load ptr, ptr %6, align 8
  %22 = getelementptr inbounds %struct.Ast_, ptr %21, i32 0, i32 2
  %23 = load i8, ptr %22, align 4
  %24 = zext i8 %23 to i32
  switch i32 %24, label %26 [
    i32 25, label %25
    i32 4, label %25
    i32 7, label %25
    i32 28, label %25
  ]

25:                                               ; preds = %11, %11, %11, %11
  br label %31

26:                                               ; preds = %11
  br label %27

27:                                               ; preds = %26
  br label %8, !llvm.loop !27

28:                                               ; preds = %8
  br label %29

29:                                               ; preds = %28
  br label %30

30:                                               ; preds = %29
  br label %31

31:                                               ; preds = %30, %25
  ret void
}