; Function Attrs: nounwind uwtable
define internal fastcc void @sema_trace_stmt_chain_liveness(i32 noundef %0) unnamed_addr #0 {
  br label %2

2:                                                ; preds = %3, %1
  %.0 = phi i32 [ %0, %1 ], [ %8, %3 ]
  %.not = icmp eq i32 %.0, 0
  br i1 %.not, label %11, label %3

3:                                                ; preds = %2
  %4 = load ptr, ptr @ast_arena, align 8
  %5 = zext i32 %.0 to i64
  %6 = getelementptr inbounds %struct.Ast_, ptr %4, i64 %5
  %7 = getelementptr inbounds i8, ptr %6, i64 8
  %8 = load i32, ptr %7, align 8
  tail call fastcc void @sema_trace_stmt_liveness(ptr noundef nonnull %6)
  %9 = getelementptr inbounds i8, ptr %6, i64 12
  %10 = load i8, ptr %9, align 4
  switch i8 %10, label %2 [
    i8 25, label %11
    i8 4, label %11
    i8 7, label %11
    i8 28, label %11
  ], !llvm.loop !18

11:                                               ; preds = %2, %3, %3, %3, %3
  ret void
}